target datalayout = "e-m:e-p270:32:32-p271:32:32-p272:64:64-i64:64-i128:128-f80:128-n8:16:32:64-S128"
target triple = "x86_64-unknown-linux-gnu"

%"struct.icu_75::number::impl::MacroProps" = type { [4 x i8], %"class.icu_75::number::Notation", %"class.icu_75::MeasureUnit", %"class.icu_75::MeasureUnit", %"class.icu_75::number::Precision", i32, %"class.icu_75::number::impl::Grouper", %"class.icu_75::number::impl::Padder", %"class.icu_75::number::IntegerWidth", %"class.icu_75::number::impl::SymbolsWrapper", i32, i32, i8, i32, %"class.icu_75::number::Scale", %"class.icu_75::number::impl::StringProp", %"class.icu_75::number::impl::StringProp", ptr, ptr, i32, [4 x i8], %"class.icu_75::Locale" }
%"class.icu_75::number::Notation" = type { i32, %"union.icu_75::number::Notation::NotationUnion" }
%"union.icu_75::number::Notation::NotationUnion" = type { %"struct.icu_75::number::Notation::NotationUnion::ScientificSettings" }
%"struct.icu_75::number::Notation::NotationUnion::ScientificSettings" = type { i8, i8, i16, i32 }
%"class.icu_75::MeasureUnit" = type <{ %"class.icu_75::UObject", ptr, i16, i8, [5 x i8] }>
%"class.icu_75::UObject" = type { ptr }
%"class.icu_75::number::Precision" = type <{ i32, [4 x i8], %"union.icu_75::number::Precision::PrecisionUnion", i32, [4 x i8] }>
%"union.icu_75::number::Precision::PrecisionUnion" = type { %"struct.icu_75::number::Precision::PrecisionUnion::IncrementSettings" }
%"struct.icu_75::number::Precision::PrecisionUnion::IncrementSettings" = type { i64, i16, i16 }
%"class.icu_75::number::impl::Grouper" = type { i16, i16, i16, i32 }
%"class.icu_75::number::impl::Padder" = type { i32, %union.anon }
%union.anon = type { %struct.anon }
%struct.anon = type { i32, i32 }
%"class.icu_75::number::IntegerWidth" = type <{ %union.anon.0, i8, [3 x i8] }>
%union.anon.0 = type { i32, [4 x i8] }
%"class.icu_75::number::impl::SymbolsWrapper" = type { i32, %union.anon.2 }
%union.anon.2 = type { ptr }
%"class.icu_75::number::Scale" = type <{ i32, [4 x i8], ptr, i32, [4 x i8] }>
%"class.icu_75::number::impl::StringProp" = type { ptr, i16, i32 }
%"class.icu_75::Locale" = type <{ %"class.icu_75::UObject", [12 x i8], [6 x i8], [4 x i8], [2 x i8], i32, [4 x i8], ptr, [157 x i8], [3 x i8], ptr, i8, [7 x i8] }>
%"class.icu_75::number::LocalizedNumberFormatter" = type { %"class.icu_75::number::NumberFormatterSettings.5", ptr, [8 x i8], ptr }
%"class.icu_75::number::NumberFormatterSettings.5" = type { %"struct.icu_75::number::impl::MacroProps" }

; Function Attrs: mustprogress uwtable
define linkonce_odr noundef nonnull align 8 dereferenceable(472) ptr @_ZN6icu_756number4impl10MacroPropsaSERKS2_(ptr noundef nonnull align 8 dereferenceable(472) %this, ptr noundef nonnull align 8 dereferenceable(472) %0) #1 comdat align 2 {
entry:
  %this.addr = alloca ptr, align 8
  %.addr = alloca ptr, align 8
  store ptr %this, ptr %this.addr, align 8
  store ptr %0, ptr %.addr, align 8
  %this1 = load ptr, ptr %this.addr, align 8
  %notation = getelementptr inbounds %"struct.icu_75::number::impl::MacroProps", ptr %this1, i32 0, i32 1
  %1 = load ptr, ptr %.addr, align 8
  %notation2 = getelementptr inbounds %"struct.icu_75::number::impl::MacroProps", ptr %1, i32 0, i32 1
  call void @llvm.memcpy.p0.p0.i64(ptr align 4 %notation, ptr align 4 %notation2, i64 12, i1 false)
  %unit = getelementptr inbounds %"struct.icu_75::number::impl::MacroProps", ptr %this1, i32 0, i32 2
  %2 = load ptr, ptr %.addr, align 8
  %unit3 = getelementptr inbounds %"struct.icu_75::number::impl::MacroProps", ptr %2, i32 0, i32 2
  %call = call noundef nonnull align 8 dereferenceable(19) ptr @_ZN6icu_7511MeasureUnitaSERKS0_(ptr noundef nonnull align 8 dereferenceable(19) %unit, ptr noundef nonnull align 8 dereferenceable(19) %unit3)
  %perUnit = getelementptr inbounds %"struct.icu_75::number::impl::MacroProps", ptr %this1, i32 0, i32 3
  %3 = load ptr, ptr %.addr, align 8
  %perUnit4 = getelementptr inbounds %"struct.icu_75::number::impl::MacroProps", ptr %3, i32 0, i32 3
  %call5 = call noundef nonnull align 8 dereferenceable(19) ptr @_ZN6icu_7511MeasureUnitaSERKS0_(ptr noundef nonnull align 8 dereferenceable(19) %perUnit, ptr noundef nonnull align 8 dereferenceable(19) %perUnit4)
  %precision = getelementptr inbounds %"struct.icu_75::number::impl::MacroProps", ptr %this1, i32 0, i32 4
  %4 = load ptr, ptr %.addr, align 8
  %precision6 = getelementptr inbounds %"struct.icu_75::number::impl::MacroProps", ptr %4, i32 0, i32 4
  call void @llvm.memcpy.p0.p0.i64(ptr align 8 %precision, ptr align 8 %precision6, i64 69, i1 false)
  %symbols = getelementptr inbounds %"struct.icu_75::number::impl::MacroProps", ptr %this1, i32 0, i32 9
  %5 = load ptr, ptr %.addr, align 8
  %symbols7 = getelementptr inbounds %"struct.icu_75::number::impl::MacroProps", ptr %5, i32 0, i32 9
  %call8 = call noundef nonnull align 8 dereferenceable(16) ptr @_ZN6icu_756number4impl14SymbolsWrapperaSERKS2_(ptr noundef nonnull align 8 dereferenceable(16) %symbols, ptr noundef nonnull align 8 dereferenceable(16) %symbols7)
  %unitWidth = getelementptr inbounds %"struct.icu_75::number::impl::MacroProps", ptr %this1, i32 0, i32 10
  %6 = load ptr, ptr %.addr, align 8
  %unitWidth9 = getelementptr inbounds %"struct.icu_75::number::impl::MacroProps", ptr %6, i32 0, i32 10
  call void @llvm.memcpy.p0.p0.i64(ptr align 8 %unitWidth, ptr align 8 %unitWidth9, i64 16, i1 false)
  %scale = getelementptr inbounds %"struct.icu_75::number::impl::MacroProps", ptr %this1, i32 0, i32 14
  %7 = load ptr, ptr %.addr, align 8
  %scale10 = getelementptr inbounds %"struct.icu_75::number::impl::MacroProps", ptr %7, i32 0, i32 14
  %call11 = call noundef nonnull align 8 dereferenceable(20) ptr @_ZN6icu_756number5ScaleaSERKS1_(ptr noundef nonnull align 8 dereferenceable(20) %scale, ptr noundef nonnull align 8 dereferenceable(20) %scale10)
  %usage = getelementptr inbounds %"struct.icu_75::number::impl::MacroProps", ptr %this1, i32 0, i32 15
  %8 = load ptr, ptr %.addr, align 8
  %usage12 = getelementptr inbounds %"struct.icu_75::number::impl::MacroProps", ptr %8, i32 0, i32 15
  %call13 = call noundef nonnull align 8 dereferenceable(16) ptr @_ZN6icu_756number4impl10StringPropaSERKS2_(ptr noundef nonnull align 8 dereferenceable(16) %usage, ptr noundef nonnull align 8 dereferenceable(16) %usage12)
  %unitDisplayCase = getelementptr inbounds %"struct.icu_75::number::impl::MacroProps", ptr %this1, i32 0, i32 16
  %9 = load ptr, ptr %.addr, align 8
  %unitDisplayCase14 = getelementptr inbounds %"struct.icu_75::number::impl::MacroProps", ptr %9, i32 0, i32 16
  %call15 = call noundef nonnull align 8 dereferenceable(16) ptr @_ZN6icu_756number4impl10StringPropaSERKS2_(ptr noundef nonnull align 8 dereferenceable(16) %unitDisplayCase, ptr noundef nonnull align 8 dereferenceable(16) %unitDisplayCase14)
  %affixProvider = getelementptr inbounds %"struct.icu_75::number::impl::MacroProps", ptr %this1, i32 0, i32 17
  %10 = load ptr, ptr %.addr, align 8
  %affixProvider16 = getelementptr inbounds %"struct.icu_75::number::impl::MacroProps", ptr %10, i32 0, i32 17
  call void @llvm.memcpy.p0.p0.i64(ptr align 8 %affixProvider, ptr align 8 %affixProvider16, i64 20, i1 false)
  %locale = getelementptr inbounds %"struct.icu_75::number::impl::MacroProps", ptr %this1, i32 0, i32 21
  %11 = load ptr, ptr %.addr, align 8
  %locale17 = getelementptr inbounds %"struct.icu_75::number::impl::MacroProps", ptr %11, i32 0, i32 21
  %call18 = call noundef nonnull align 8 dereferenceable(217) ptr @_ZN6icu_756LocaleaSERKS0_(ptr noundef nonnull align 8 dereferenceable(217) %locale, ptr noundef nonnull align 8 dereferenceable(217) %locale17)
  ret ptr %this1
}

; Function Attrs: mustprogress uwtable
define linkonce_odr void @_ZN6icu_756number23NumberFormatterSettingsINS0_24LocalizedNumberFormatterEEC2Ev(ptr noundef nonnull align 8 dereferenceable(472) %this) unnamed_addr #1 comdat align 2 {
entry:
  %this.addr = alloca ptr, align 8
  store ptr %this, ptr %this.addr, align 8
  %this1 = load ptr, ptr %this.addr, align 8
  %fMacros = getelementptr inbounds %"class.icu_75::number::NumberFormatterSettings.5", ptr %this1, i32 0, i32 0
  call void @_ZN6icu_756number4impl10MacroPropsC2Ev(ptr noundef nonnull align 8 dereferenceable(472) %fMacros)
  ret void
}

; Function Attrs: mustprogress uwtable
define void @_ZN6icu_756number24LocalizedNumberFormatterC2ERKNS0_4impl10MacroPropsERKNS_6LocaleE(ptr noundef nonnull align 8 dereferenceable(496) %this, ptr noundef nonnull align 8 dereferenceable(472) %macros, ptr noundef nonnull align 8 dereferenceable(217) %locale) unnamed_addr #1 align 2 personality ptr @__gxx_personality_v0 {
entry:
  %this.addr = alloca ptr, align 8
  %macros.addr = alloca ptr, align 8
  %locale.addr = alloca ptr, align 8
  %exn.slot = alloca ptr, align 8
  %ehselector.slot = alloca i32, align 4
  store ptr %this, ptr %this.addr, align 8
  store ptr %macros, ptr %macros.addr, align 8
  store ptr %locale, ptr %locale.addr, align 8
  %this1 = load ptr, ptr %this.addr, align 8
  call void @_ZN6icu_756number23NumberFormatterSettingsINS0_24LocalizedNumberFormatterEEC2Ev(ptr noundef nonnull align 8 dereferenceable(472) %this1)
  %fCompiled = getelementptr inbounds %"class.icu_75::number::LocalizedNumberFormatter", ptr %this1, i32 0, i32 1
  store ptr null, ptr %fCompiled, align 8
  %fUnsafeCallCount = getelementptr inbounds %"class.icu_75::number::LocalizedNumberFormatter", ptr %this1, i32 0, i32 2
  %arrayinit.begin = getelementptr inbounds [8 x i8], ptr %fUnsafeCallCount, i64 0, i64 0
  %arrayinit.end = getelementptr inbounds i8, ptr %arrayinit.begin, i64 8
  br label %arrayinit.body

arrayinit.body:                                   ; preds = %arrayinit.body, %entry
  %arrayinit.cur = phi ptr [ %arrayinit.begin, %entry ], [ %arrayinit.next, %arrayinit.body ]
  store i8 0, ptr %arrayinit.cur, align 1
  %arrayinit.next = getelementptr inbounds i8, ptr %arrayinit.cur, i64 1
  %arrayinit.done = icmp eq ptr %arrayinit.next, %arrayinit.end
  br i1 %arrayinit.done, label %arrayinit.end2, label %arrayinit.body

arrayinit.end2:                                   ; preds = %arrayinit.body
  %fWarehouse = getelementptr inbounds %"class.icu_75::number::LocalizedNumberFormatter", ptr %this1, i32 0, i32 3
  store ptr null, ptr %fWarehouse, align 8
  %0 = load ptr, ptr %macros.addr, align 8
  %fMacros = getelementptr inbounds %"class.icu_75::number::NumberFormatterSettings.5", ptr %this1, i32 0, i32 0
  %call = invoke noundef nonnull align 8 dereferenceable(472) ptr @_ZN6icu_756number4impl10MacroPropsaSERKS2_(ptr noundef nonnull align 8 dereferenceable(472) %fMacros, ptr noundef nonnull align 8 dereferenceable(472) %0)
          to label %invoke.cont unwind label %lpad

invoke.cont:                                      ; preds = %arrayinit.end2
  %1 = load ptr, ptr %locale.addr, align 8
  %fMacros3 = getelementptr inbounds %"class.icu_75::number::NumberFormatterSettings.5", ptr %this1, i32 0, i32 0
  %locale4 = getelementptr inbounds %"struct.icu_75::number::impl::MacroProps", ptr %fMacros3, i32 0, i32 21
  %call6 = invoke noundef nonnull align 8 dereferenceable(217) ptr @_ZN6icu_756LocaleaSERKS0_(ptr noundef nonnull align 8 dereferenceable(217) %locale4, ptr noundef nonnull align 8 dereferenceable(217) %1)
          to label %invoke.cont5 unwind label %lpad

invoke.cont5:                                     ; preds = %invoke.cont
  ret void

lpad:                                             ; preds = %invoke.cont, %arrayinit.end2
  %2 = landingpad { ptr, i32 }
          cleanup
  %3 = extractvalue { ptr, i32 } %2, 0
  store ptr %3, ptr %exn.slot, align 8
  %4 = extractvalue { ptr, i32 } %2, 1
  store i32 %4, ptr %ehselector.slot, align 4
  call void @_ZN6icu_756number23NumberFormatterSettingsINS0_24LocalizedNumberFormatterEED2Ev(ptr noundef nonnull align 8 dereferenceable(472) %this1) #10
  br label %eh.resume

eh.resume:                                        ; preds = %lpad
  %exn = load ptr, ptr %exn.slot, align 8
  %sel = load i32, ptr %ehselector.slot, align 4
  %lpad.val = insertvalue { ptr, i32 } poison, ptr %exn, 0
  %lpad.val7 = insertvalue { ptr, i32 } %lpad.val, i32 %sel, 1
  resume { ptr, i32 } %lpad.val7
}