; Function Attrs: mustprogress uwtable
define void @_ZN6icu_756number24LocalizedNumberFormatterC2ERKNS0_4impl10MacroPropsERKNS_6LocaleE(ptr noundef nonnull align 8 dereferenceable(496) %this, ptr noundef nonnull align 8 dereferenceable(472) %macros, ptr noundef nonnull align 8 dereferenceable(217) %locale) unnamed_addr #1 align 2 personality ptr @__gxx_personality_v0 {
entry:
  tail call void @_ZN6icu_756number4impl10MacroPropsC2Ev(ptr noundef nonnull align 8 dereferenceable(472) %this)
  %fCompiled = getelementptr inbounds i8, ptr %this, i64 472
  %notation.i = getelementptr inbounds i8, ptr %this, i64 4
  %notation2.i = getelementptr inbounds i8, ptr %macros, i64 4
  tail call void @llvm.memset.p0.i64(ptr noundef nonnull align 8 dereferenceable(24) %fCompiled, i8 0, i64 24, i1 false)
  tail call void @llvm.memcpy.p0.p0.i64(ptr noundef nonnull align 4 dereferenceable(12) %notation.i, ptr noundef nonnull align 4 dereferenceable(12) %notation2.i, i64 12, i1 false)
  %unit.i = getelementptr inbounds i8, ptr %this, i64 16
  %unit3.i = getelementptr inbounds i8, ptr %macros, i64 16
  %call.i1 = invoke noundef nonnull align 8 dereferenceable(19) ptr @_ZN6icu_7511MeasureUnitaSERKS0_(ptr noundef nonnull align 8 dereferenceable(19) %unit.i, ptr noundef nonnull align 8 dereferenceable(19) %unit3.i)
          to label %call.i.noexc unwind label %lpad

call.i.noexc:                                     ; preds = %entry
  %perUnit.i = getelementptr inbounds i8, ptr %this, i64 40
  %perUnit4.i = getelementptr inbounds i8, ptr %macros, i64 40
  %call5.i2 = invoke noundef nonnull align 8 dereferenceable(19) ptr @_ZN6icu_7511MeasureUnitaSERKS0_(ptr noundef nonnull align 8 dereferenceable(19) %perUnit.i, ptr noundef nonnull align 8 dereferenceable(19) %perUnit4.i)
          to label %call5.i.noexc unwind label %lpad

call5.i.noexc:                                    ; preds = %call.i.noexc
  %precision.i = getelementptr inbounds i8, ptr %this, i64 64
  %precision6.i = getelementptr inbounds i8, ptr %macros, i64 64
  tail call void @llvm.memcpy.p0.p0.i64(ptr noundef nonnull align 8 dereferenceable(69) %precision.i, ptr noundef nonnull align 8 dereferenceable(69) %precision6.i, i64 69, i1 false)
  %symbols.i = getelementptr inbounds i8, ptr %this, i64 136
  %symbols7.i = getelementptr inbounds i8, ptr %macros, i64 136
  %call8.i3 = invoke noundef nonnull align 8 dereferenceable(16) ptr @_ZN6icu_756number4impl14SymbolsWrapperaSERKS2_(ptr noundef nonnull align 8 dereferenceable(16) %symbols.i, ptr noundef nonnull align 8 dereferenceable(16) %symbols7.i)
          to label %call8.i.noexc unwind label %lpad

call8.i.noexc:                                    ; preds = %call5.i.noexc
  %unitWidth.i = getelementptr inbounds i8, ptr %this, i64 152
  %unitWidth9.i = getelementptr inbounds i8, ptr %macros, i64 152
  tail call void @llvm.memcpy.p0.p0.i64(ptr noundef nonnull align 8 dereferenceable(16) %unitWidth.i, ptr noundef nonnull align 8 dereferenceable(16) %unitWidth9.i, i64 16, i1 false)
  %scale.i = getelementptr inbounds i8, ptr %this, i64 168
  %scale10.i = getelementptr inbounds i8, ptr %macros, i64 168
  %call11.i4 = invoke noundef nonnull align 8 dereferenceable(20) ptr @_ZN6icu_756number5ScaleaSERKS1_(ptr noundef nonnull align 8 dereferenceable(20) %scale.i, ptr noundef nonnull align 8 dereferenceable(20) %scale10.i)
          to label %call11.i.noexc unwind label %lpad

call11.i.noexc:                                   ; preds = %call8.i.noexc
  %usage.i = getelementptr inbounds i8, ptr %this, i64 192
  %usage12.i = getelementptr inbounds i8, ptr %macros, i64 192
  %call13.i5 = invoke noundef nonnull align 8 dereferenceable(16) ptr @_ZN6icu_756number4impl10StringPropaSERKS2_(ptr noundef nonnull align 8 dereferenceable(16) %usage.i, ptr noundef nonnull align 8 dereferenceable(16) %usage12.i)
          to label %call13.i.noexc unwind label %lpad

call13.i.noexc:                                   ; preds = %call11.i.noexc
  %unitDisplayCase.i = getelementptr inbounds i8, ptr %this, i64 208
  %unitDisplayCase14.i = getelementptr inbounds i8, ptr %macros, i64 208
  %call15.i6 = invoke noundef nonnull align 8 dereferenceable(16) ptr @_ZN6icu_756number4impl10StringPropaSERKS2_(ptr noundef nonnull align 8 dereferenceable(16) %unitDisplayCase.i, ptr noundef nonnull align 8 dereferenceable(16) %unitDisplayCase14.i)
          to label %call15.i.noexc unwind label %lpad

call15.i.noexc:                                   ; preds = %call13.i.noexc
  %affixProvider.i = getelementptr inbounds i8, ptr %this, i64 224
  %affixProvider16.i = getelementptr inbounds i8, ptr %macros, i64 224
  tail call void @llvm.memcpy.p0.p0.i64(ptr noundef nonnull align 8 dereferenceable(20) %affixProvider.i, ptr noundef nonnull align 8 dereferenceable(20) %affixProvider16.i, i64 20, i1 false)
  %locale.i = getelementptr inbounds i8, ptr %this, i64 248
  %locale17.i = getelementptr inbounds i8, ptr %macros, i64 248
  %call18.i7 = invoke noundef nonnull align 8 dereferenceable(217) ptr @_ZN6icu_756LocaleaSERKS0_(ptr noundef nonnull align 8 dereferenceable(217) %locale.i, ptr noundef nonnull align 8 dereferenceable(217) %locale17.i)
          to label %invoke.cont unwind label %lpad

invoke.cont:                                      ; preds = %call15.i.noexc
  %call6 = invoke noundef nonnull align 8 dereferenceable(217) ptr @_ZN6icu_756LocaleaSERKS0_(ptr noundef nonnull align 8 dereferenceable(217) %locale.i, ptr noundef nonnull align 8 dereferenceable(217) %locale)
          to label %invoke.cont5 unwind label %lpad

invoke.cont5:                                     ; preds = %invoke.cont
  ret void

lpad:                                             ; preds = %call15.i.noexc, %call13.i.noexc, %call11.i.noexc, %call8.i.noexc, %call5.i.noexc, %call.i.noexc, %entry, %invoke.cont
  %0 = landingpad { ptr, i32 }
          cleanup
  tail call void @_ZN6icu_756number23NumberFormatterSettingsINS0_24LocalizedNumberFormatterEED2Ev(ptr noundef nonnull align 8 dereferenceable(472) %this) #14
  resume { ptr, i32 } %0
}